target datalayout = "e-m:e-p270:32:32-p271:32:32-p272:64:64-i64:64-i128:128-f80:128-n8:16:32:64-S128"
target triple = "x86_64-pc-linux-gnu"

%struct.PROV_XORSIG_CTX = type { ptr, ptr, ptr, i8, [50 x i8], ptr, i64, ptr, ptr, i32 }

@.str.34 = private unnamed_addr constant [11 x i8] c"properties\00", align 1
@.str.72 = private unnamed_addr constant [7 x i8] c"digest\00", align 1

; Function Attrs: nounwind uwtable
define internal i32 @xor_sig_set_ctx_params(ptr noundef %0, ptr noundef %1) #0 {
  %3 = alloca i32, align 4
  %4 = alloca ptr, align 8
  %5 = alloca ptr, align 8
  %6 = alloca ptr, align 8
  %7 = alloca ptr, align 8
  %8 = alloca i32, align 4
  %9 = alloca [50 x i8], align 16
  %10 = alloca ptr, align 8
  %11 = alloca [256 x i8], align 16
  %12 = alloca ptr, align 8
  %13 = alloca ptr, align 8
  store ptr %0, ptr %4, align 8, !tbaa !13
  store ptr %1, ptr %5, align 8, !tbaa !43
  call void @llvm.lifetime.start.p0(i64 8, ptr %6) #8
  %14 = load ptr, ptr %4, align 8, !tbaa !13
  store ptr %14, ptr %6, align 8, !tbaa !13
  call void @llvm.lifetime.start.p0(i64 8, ptr %7) #8
  %15 = load ptr, ptr %6, align 8, !tbaa !13
  %16 = icmp eq ptr %15, null
  br i1 %16, label %20, label %17

17:                                               ; preds = %2
  %18 = load ptr, ptr %5, align 8, !tbaa !43
  %19 = icmp eq ptr %18, null
  br i1 %19, label %20, label %21

20:                                               ; preds = %17, %2
  store i32 0, ptr %3, align 4
  store i32 1, ptr %8, align 4
  br label %66

21:                                               ; preds = %17
  %22 = load ptr, ptr %5, align 8, !tbaa !43
  %23 = call ptr @OSSL_PARAM_locate_const(ptr noundef %22, ptr noundef @.str.72)
  store ptr %23, ptr %7, align 8, !tbaa !43
  %24 = load ptr, ptr %7, align 8, !tbaa !43
  %25 = icmp ne ptr %24, null
  br i1 %25, label %26, label %34

26:                                               ; preds = %21
  %27 = load ptr, ptr %6, align 8, !tbaa !13
  %28 = getelementptr inbounds nuw %struct.PROV_XORSIG_CTX, ptr %27, i32 0, i32 3
  %29 = load i8, ptr %28, align 8
  %30 = and i8 %29, 1
  %31 = zext i8 %30 to i32
  %32 = icmp ne i32 %31, 0
  br i1 %32, label %34, label %33

33:                                               ; preds = %26
  store i32 0, ptr %3, align 4
  store i32 1, ptr %8, align 4
  br label %66

34:                                               ; preds = %26, %21
  %35 = load ptr, ptr %7, align 8, !tbaa !43
  %36 = icmp ne ptr %35, null
  br i1 %36, label %37, label %65

37:                                               ; preds = %34
  call void @llvm.lifetime.start.p0(i64 50, ptr %9) #8
  call void @llvm.memset.p0.i64(ptr align 16 %9, i8 0, i64 50, i1 false)
  call void @llvm.lifetime.start.p0(i64 8, ptr %10) #8
  %38 = getelementptr inbounds [50 x i8], ptr %9, i64 0, i64 0
  store ptr %38, ptr %10, align 8, !tbaa !30
  call void @llvm.lifetime.start.p0(i64 256, ptr %11) #8
  call void @llvm.memset.p0.i64(ptr align 16 %11, i8 0, i64 256, i1 false)
  call void @llvm.lifetime.start.p0(i64 8, ptr %12) #8
  %39 = getelementptr inbounds [256 x i8], ptr %11, i64 0, i64 0
  store ptr %39, ptr %12, align 8, !tbaa !30
  call void @llvm.lifetime.start.p0(i64 8, ptr %13) #8
  %40 = load ptr, ptr %5, align 8, !tbaa !43
  %41 = call ptr @OSSL_PARAM_locate_const(ptr noundef %40, ptr noundef @.str.34)
  store ptr %41, ptr %13, align 8, !tbaa !43
  %42 = load ptr, ptr %7, align 8, !tbaa !43
  %43 = call i32 @OSSL_PARAM_get_utf8_string(ptr noundef %42, ptr noundef %10, i64 noundef 50)
  %44 = icmp ne i32 %43, 0
  br i1 %44, label %46, label %45

45:                                               ; preds = %37
  store i32 0, ptr %3, align 4
  store i32 1, ptr %8, align 4
  br label %62

46:                                               ; preds = %37
  %47 = load ptr, ptr %13, align 8, !tbaa !43
  %48 = icmp ne ptr %47, null
  br i1 %48, label %49, label %54

49:                                               ; preds = %46
  %50 = load ptr, ptr %13, align 8, !tbaa !43
  %51 = call i32 @OSSL_PARAM_get_utf8_string(ptr noundef %50, ptr noundef %12, i64 noundef 256)
  %52 = icmp ne i32 %51, 0
  br i1 %52, label %54, label %53

53:                                               ; preds = %49
  store i32 0, ptr %3, align 4
  store i32 1, ptr %8, align 4
  br label %62

54:                                               ; preds = %49, %46
  %55 = load ptr, ptr %6, align 8, !tbaa !13
  %56 = getelementptr inbounds [50 x i8], ptr %9, i64 0, i64 0
  %57 = getelementptr inbounds [256 x i8], ptr %11, i64 0, i64 0
  %58 = call i32 @xor_sig_setup_md(ptr noundef %55, ptr noundef %56, ptr noundef %57)
  %59 = icmp ne i32 %58, 0
  br i1 %59, label %61, label %60

60:                                               ; preds = %54
  store i32 0, ptr %3, align 4
  store i32 1, ptr %8, align 4
  br label %62

61:                                               ; preds = %54
  store i32 0, ptr %8, align 4
  br label %62

62:                                               ; preds = %61, %60, %53, %45
  call void @llvm.lifetime.end.p0(i64 8, ptr %13) #8
  call void @llvm.lifetime.end.p0(i64 8, ptr %12) #8
  call void @llvm.lifetime.end.p0(i64 256, ptr %11) #8
  call void @llvm.lifetime.end.p0(i64 8, ptr %10) #8
  call void @llvm.lifetime.end.p0(i64 50, ptr %9) #8
  %63 = load i32, ptr %8, align 4
  switch i32 %63, label %66 [
    i32 0, label %64
  ]

64:                                               ; preds = %62
  br label %65

65:                                               ; preds = %64, %34
  store i32 1, ptr %3, align 4
  store i32 1, ptr %8, align 4
  br label %66

66:                                               ; preds = %65, %62, %33, %20
  call void @llvm.lifetime.end.p0(i64 8, ptr %7) #8
  call void @llvm.lifetime.end.p0(i64 8, ptr %6) #8
  %67 = load i32, ptr %3, align 4
  ret i32 %67
}