; Function Attrs: nounwind uwtable
define internal range(i32 0, 2) i32 @xor_sig_set_ctx_params(ptr noundef %0, ptr noundef %1) #0 {
  %3 = alloca [50 x i8], align 16
  %4 = alloca ptr, align 8
  %5 = alloca [256 x i8], align 16
  %6 = alloca ptr, align 8
  %7 = icmp eq ptr %0, null
  %8 = icmp eq ptr %1, null
  %or.cond = or i1 %7, %8
  br i1 %or.cond, label %23, label %9

9:                                                ; preds = %2
  %10 = tail call ptr @OSSL_PARAM_locate_const(ptr noundef nonnull %1, ptr noundef nonnull @.str.72) #16
  %.not = icmp eq ptr %10, null
  br i1 %.not, label %.critedge, label %11

11:                                               ; preds = %9
  %12 = getelementptr inbounds nuw i8, ptr %0, i64 24
  %13 = load i8, ptr %12, align 8
  %14 = and i8 %13, 1
  %.not19 = icmp eq i8 %14, 0
  br i1 %.not19, label %23, label %15

15:                                               ; preds = %11
  call void @llvm.lifetime.start.p0(i64 50, ptr nonnull %3) #16
  call void @llvm.memset.p0.i64(ptr noundef nonnull align 16 dereferenceable(50) %3, i8 0, i64 50, i1 false)
  call void @llvm.lifetime.start.p0(i64 8, ptr nonnull %4) #16
  store ptr %3, ptr %4, align 8, !tbaa !25
  call void @llvm.lifetime.start.p0(i64 256, ptr nonnull %5) #16
  call void @llvm.memset.p0.i64(ptr noundef nonnull align 16 dereferenceable(256) %5, i8 0, i64 256, i1 false)
  call void @llvm.lifetime.start.p0(i64 8, ptr nonnull %6) #16
  store ptr %5, ptr %6, align 8, !tbaa !25
  %16 = call ptr @OSSL_PARAM_locate_const(ptr noundef nonnull %1, ptr noundef nonnull @.str.34) #16
  %17 = call i32 @OSSL_PARAM_get_utf8_string(ptr noundef nonnull %10, ptr noundef nonnull %4, i64 noundef 50) #16
  %.not20 = icmp eq i32 %17, 0
  br i1 %.not20, label %.critedge25, label %18

18:                                               ; preds = %15
  %.not21 = icmp eq ptr %16, null
  br i1 %.not21, label %21, label %19

19:                                               ; preds = %18
  %20 = call i32 @OSSL_PARAM_get_utf8_string(ptr noundef nonnull %16, ptr noundef nonnull %6, i64 noundef 256) #16
  %.not22 = icmp eq i32 %20, 0
  br i1 %.not22, label %.critedge25, label %21

21:                                               ; preds = %19, %18
  %22 = call fastcc i32 @xor_sig_setup_md(ptr noundef nonnull %0, ptr noundef nonnull %3, ptr noundef nonnull %5)
  %.not23.not = icmp eq i32 %22, 0
  call void @llvm.lifetime.end.p0(i64 8, ptr nonnull %6) #16
  call void @llvm.lifetime.end.p0(i64 256, ptr nonnull %5) #16
  call void @llvm.lifetime.end.p0(i64 8, ptr nonnull %4) #16
  call void @llvm.lifetime.end.p0(i64 50, ptr nonnull %3) #16
  br i1 %.not23.not, label %23, label %.critedge

.critedge:                                        ; preds = %9, %21
  br label %23

.critedge25:                                      ; preds = %19, %15
  call void @llvm.lifetime.end.p0(i64 8, ptr nonnull %6) #16
  call void @llvm.lifetime.end.p0(i64 256, ptr nonnull %5) #16
  call void @llvm.lifetime.end.p0(i64 8, ptr nonnull %4) #16
  call void @llvm.lifetime.end.p0(i64 50, ptr nonnull %3) #16
  br label %23

23:                                               ; preds = %.critedge25, %11, %2, %21, %.critedge
  %.0 = phi i32 [ 1, %.critedge ], [ 0, %21 ], [ 0, %2 ], [ 0, %11 ], [ 0, %.critedge25 ]
  ret i32 %.0
}